target datalayout = "e-m:e-p270:32:32-p271:32:32-p272:64:64-i64:64-i128:128-f80:128-n8:16:32:64-S128"
target triple = "x86_64-pc-linux-gnu"

; Function Attrs: nounwind uwtable
define internal i64 @stack_overflow(i64 noundef %0, i64 noundef %1, ptr noundef %2) #0 {
  %4 = alloca i64, align 8
  %5 = alloca i64, align 8
  %6 = alloca i64, align 8
  %7 = alloca ptr, align 8
  %8 = alloca [4096 x i8], align 16
  %9 = alloca i64, align 8
  %10 = alloca i32, align 4
  store i64 %0, ptr %5, align 8, !tbaa !177
  store i64 %1, ptr %6, align 8, !tbaa !177
  store ptr %2, ptr %7, align 8, !tbaa !245
  call void @llvm.lifetime.start.p0(i64 4096, ptr %8) #14
  call void @llvm.lifetime.start.p0(i64 8, ptr %9) #14
  %11 = ptrtoint ptr %8 to i64
  store i64 %11, ptr %9, align 8, !tbaa !177
  %12 = load ptr, ptr %7, align 8, !tbaa !245
  %13 = load i64, ptr %12, align 8, !tbaa !177
  %14 = add i64 %13, 1
  store i64 %14, ptr %12, align 8, !tbaa !177
  %15 = load i64, ptr %9, align 8, !tbaa !177
  %16 = load i64, ptr %5, align 8, !tbaa !177
  %17 = icmp ult i64 %15, %16
  br i1 %17, label %22, label %18

18:                                               ; preds = %3
  %19 = load i64, ptr %6, align 8, !tbaa !177
  %20 = load i64, ptr %9, align 8, !tbaa !177
  %21 = icmp ult i64 %19, %20
  br i1 %21, label %22, label %24

22:                                               ; preds = %18, %3
  %23 = load i64, ptr %9, align 8, !tbaa !177
  store i64 %23, ptr %4, align 8
  store i32 1, ptr %10, align 4
  br label %31

24:                                               ; preds = %18
  %25 = getelementptr [4096 x i8], ptr %8, i64 0, i64 0
  store volatile i8 1, ptr %25, align 16, !tbaa !219
  %26 = getelementptr [4096 x i8], ptr %8, i64 0, i64 4095
  store volatile i8 0, ptr %26, align 1, !tbaa !219
  %27 = load i64, ptr %5, align 8, !tbaa !177
  %28 = load i64, ptr %6, align 8, !tbaa !177
  %29 = load ptr, ptr %7, align 8, !tbaa !245
  %30 = call i64 @stack_overflow(i64 noundef %27, i64 noundef %28, ptr noundef %29)
  store i64 %30, ptr %4, align 8
  store i32 1, ptr %10, align 4
  br label %31

31:                                               ; preds = %24, %22
  call void @llvm.lifetime.end.p0(i64 8, ptr %9) #14
  call void @llvm.lifetime.end.p0(i64 4096, ptr %8) #14
  %32 = load i64, ptr %4, align 8
  ret i64 %32
}