; Function Attrs: nofree nounwind memory(argmem: readwrite, inaccessiblemem: readwrite) uwtable
define internal fastcc i64 @stack_overflow(i64 noundef range(i64 0, -104857600) %0, i64 noundef range(i64 104857600, 0) %1, ptr noundef nonnull captures(none) %2) unnamed_addr #14 {
  %4 = alloca [4096 x i8], align 16
  call void @llvm.lifetime.start.p0(i64 4096, ptr nonnull %4) #16
  %5 = ptrtoint ptr %4 to i64
  %6 = load i64, ptr %2, align 8, !tbaa !210
  %7 = add i64 %6, 1
  store i64 %7, ptr %2, align 8, !tbaa !210
  %8 = icmp ugt i64 %0, %5
  %9 = icmp ult i64 %1, %5
  %or.cond = or i1 %8, %9
  br i1 %or.cond, label %13, label %10

10:                                               ; preds = %3
  store volatile i8 1, ptr %4, align 16, !tbaa !175
  %11 = getelementptr inbounds nuw i8, ptr %4, i64 4095
  store volatile i8 0, ptr %11, align 1, !tbaa !175
  %12 = call fastcc i64 @stack_overflow(i64 noundef %0, i64 noundef %1, ptr noundef %2)
  br label %13

13:                                               ; preds = %3, %10
  %.0 = phi i64 [ %12, %10 ], [ %5, %3 ]
  call void @llvm.lifetime.end.p0(i64 4096, ptr nonnull %4) #16
  ret i64 %.0
}